target datalayout = "e-m:e-p270:32:32-p271:32:32-p272:64:64-i64:64-i128:128-f80:128-n8:16:32:64-S128"
target triple = "x86_64-pc-linux-gnu"

%struct.Rwr_Man_t_ = type { i32, ptr, ptr, ptr, ptr, ptr, ptr, ptr, ptr, ptr, ptr, ptr, i32, i32, i32, i32, i32, ptr, ptr, ptr, ptr, ptr, i32, i32, i32, i32, i32, [222 x i32], i32, i32, i32, i64, i64, i64, i64, i64, i64, i64 }
%struct.Vec_Ptr_t_ = type { i32, i32, ptr }
%struct.Rwr_Node_t_ = type <{ i32, i32, i16, i16, i16, i32, [6 x i8], ptr, ptr, ptr }>
%struct.timespec = type { i64, i64 }

@.str.8 = private unnamed_addr constant [5 x i8] c"%s =\00", align 1
@.str.10 = private unnamed_addr constant [11 x i8] c"%9.2f sec\0A\00", align 1
@.str.11 = private unnamed_addr constant [51 x i8] c"The number of classes = %d. Canonical nodes = %d.\0A\00", align 1
@.str.13 = private unnamed_addr constant [8 x i8] c"Loading\00", align 1
@.str.15 = private unnamed_addr constant [3 x i8] c"rb\00", align 1
@.str.16 = private unnamed_addr constant [45 x i8] c"Rwr_ManLoadFromFile: Cannot open file \22%s\22.\0A\00", align 1
@.str.17 = private unnamed_addr constant [36 x i8] c"The number of nodes loaded = %d.   \00", align 1

; Function Attrs: inlinehint nounwind uwtable
define internal ptr @Rwr_NotCond(ptr noundef %0, i32 noundef %1) #4 {
  %3 = alloca ptr, align 8
  %4 = alloca i32, align 4
  store ptr %0, ptr %3, align 8, !tbaa !28
  store i32 %1, ptr %4, align 4, !tbaa !23
  %5 = load ptr, ptr %3, align 8, !tbaa !28
  %6 = ptrtoint ptr %5 to i64
  %7 = load i32, ptr %4, align 4, !tbaa !23
  %8 = sext i32 %7 to i64
  %9 = xor i64 %6, %8
  %10 = inttoptr i64 %9 to ptr
  ret ptr %10
}

; Function Attrs: inlinehint nounwind uwtable
define internal i32 @Abc_MaxInt(i32 noundef %0, i32 noundef %1) #4 {
  %3 = alloca i32, align 4
  %4 = alloca i32, align 4
  store i32 %0, ptr %3, align 4, !tbaa !23
  store i32 %1, ptr %4, align 4, !tbaa !23
  %5 = load i32, ptr %3, align 4, !tbaa !23
  %6 = load i32, ptr %4, align 4, !tbaa !23
  %7 = icmp sgt i32 %5, %6
  br i1 %7, label %8, label %10

8:                                                ; preds = %2
  %9 = load i32, ptr %3, align 4, !tbaa !23
  br label %12

10:                                               ; preds = %2
  %11 = load i32, ptr %4, align 4, !tbaa !23
  br label %12

12:                                               ; preds = %10, %8
  %13 = phi i32 [ %9, %8 ], [ %11, %10 ]
  ret i32 %13
}

; Function Attrs: inlinehint nounwind uwtable
define internal i64 @Abc_Clock() #4 {
  %1 = alloca i64, align 8
  %2 = alloca %struct.timespec, align 8
  %3 = alloca i32, align 4
  %4 = alloca i64, align 8
  call void @llvm.lifetime.start.p0(i64 16, ptr %2) #9
  %5 = call i32 @clock_gettime(i32 noundef 1, ptr noundef %2) #9
  %6 = icmp slt i32 %5, 0
  br i1 %6, label %7, label %8

7:                                                ; preds = %0
  store i64 -1, ptr %1, align 8
  store i32 1, ptr %3, align 4
  br label %19

8:                                                ; preds = %0
  call void @llvm.lifetime.start.p0(i64 8, ptr %4) #9
  %9 = getelementptr inbounds nuw %struct.timespec, ptr %2, i32 0, i32 0
  %10 = load i64, ptr %9, align 8, !tbaa !51
  %11 = mul nsw i64 %10, 1000000
  store i64 %11, ptr %4, align 8, !tbaa !8
  %12 = getelementptr inbounds nuw %struct.timespec, ptr %2, i32 0, i32 1
  %13 = load i64, ptr %12, align 8, !tbaa !53
  %14 = mul nsw i64 %13, 1000000
  %15 = sdiv i64 %14, 1000000000
  %16 = load i64, ptr %4, align 8, !tbaa !8
  %17 = add nsw i64 %16, %15
  store i64 %17, ptr %4, align 8, !tbaa !8
  %18 = load i64, ptr %4, align 8, !tbaa !8
  store i64 %18, ptr %1, align 8
  store i32 1, ptr %3, align 4
  call void @llvm.lifetime.end.p0(i64 8, ptr %4) #9
  br label %19

19:                                               ; preds = %8, %7
  call void @llvm.lifetime.end.p0(i64 16, ptr %2) #9
  %20 = load i64, ptr %1, align 8
  ret i64 %20
}

; Function Attrs: nounwind uwtable
define void @Rwr_ManLoadFromFile(ptr noundef %0, ptr noundef %1) #0 {
  %3 = alloca ptr, align 8
  %4 = alloca ptr, align 8
  %5 = alloca ptr, align 8
  %6 = alloca ptr, align 8
  %7 = alloca ptr, align 8
  %8 = alloca ptr, align 8
  %9 = alloca i32, align 4
  %10 = alloca i32, align 4
  %11 = alloca i32, align 4
  %12 = alloca i32, align 4
  %13 = alloca i32, align 4
  %14 = alloca i64, align 8
  %15 = alloca i32, align 4
  %16 = alloca i32, align 4
  store ptr %0, ptr %3, align 8, !tbaa !3
  store ptr %1, ptr %4, align 8, !tbaa !37
  call void @llvm.lifetime.start.p0(i64 8, ptr %5) #9
  call void @llvm.lifetime.start.p0(i64 8, ptr %6) #9
  call void @llvm.lifetime.start.p0(i64 8, ptr %7) #9
  call void @llvm.lifetime.start.p0(i64 8, ptr %8) #9
  call void @llvm.lifetime.start.p0(i64 4, ptr %9) #9
  call void @llvm.lifetime.start.p0(i64 4, ptr %10) #9
  call void @llvm.lifetime.start.p0(i64 4, ptr %11) #9
  call void @llvm.lifetime.start.p0(i64 4, ptr %12) #9
  call void @llvm.lifetime.start.p0(i64 4, ptr %13) #9
  call void @llvm.lifetime.start.p0(i64 8, ptr %14) #9
  %17 = call i64 @Abc_Clock()
  store i64 %17, ptr %14, align 8, !tbaa !8
  call void @llvm.lifetime.start.p0(i64 4, ptr %15) #9
  %18 = load ptr, ptr %4, align 8, !tbaa !37
  %19 = call noalias ptr @fopen(ptr noundef %18, ptr noundef @.str.15)
  store ptr %19, ptr %5, align 8, !tbaa !24
  %20 = load ptr, ptr %5, align 8, !tbaa !24
  %21 = icmp eq ptr %20, null
  br i1 %21, label %22, label %25

22:                                               ; preds = %2
  %23 = load ptr, ptr %4, align 8, !tbaa !37
  %24 = call i32 (ptr, ...) @printf(ptr noundef @.str.16, ptr noundef %23)
  store i32 1, ptr %16, align 4
  br label %173

25:                                               ; preds = %2
  %26 = load ptr, ptr %5, align 8, !tbaa !24
  %27 = call i64 @fread(ptr noundef %11, i64 noundef 4, i64 noundef 1, ptr noundef %26)
  %28 = trunc i64 %27 to i32
  store i32 %28, ptr %15, align 4, !tbaa !23
  %29 = load i32, ptr %11, align 4, !tbaa !23
  %30 = mul nsw i32 %29, 2
  %31 = sext i32 %30 to i64
  %32 = mul i64 4, %31
  %33 = call noalias ptr @malloc(i64 noundef %32) #11
  store ptr %33, ptr %8, align 8, !tbaa !42
  %34 = load ptr, ptr %8, align 8, !tbaa !42
  %35 = load i32, ptr %11, align 4, !tbaa !23
  %36 = mul nsw i32 %35, 2
  %37 = sext i32 %36 to i64
  %38 = load ptr, ptr %5, align 8, !tbaa !24
  %39 = call i64 @fread(ptr noundef %34, i64 noundef 4, i64 noundef %37, ptr noundef %38)
  %40 = trunc i64 %39 to i32
  store i32 %40, ptr %15, align 4, !tbaa !23
  %41 = load ptr, ptr %5, align 8, !tbaa !24
  %42 = call i32 @fclose(ptr noundef %41)
  store i32 0, ptr %13, align 4, !tbaa !23
  br label %43

43:                                               ; preds = %148, %25
  %44 = load i32, ptr %13, align 4, !tbaa !23
  %45 = load i32, ptr %11, align 4, !tbaa !23
  %46 = icmp slt i32 %44, %45
  br i1 %46, label %47, label %151

47:                                               ; preds = %43
  %48 = load ptr, ptr %8, align 8, !tbaa !42
  %49 = load i32, ptr %13, align 4, !tbaa !23
  %50 = mul nsw i32 2, %49
  %51 = add nsw i32 %50, 0
  %52 = sext i32 %51 to i64
  %53 = getelementptr inbounds i32, ptr %48, i64 %52
  %54 = load i32, ptr %53, align 4, !tbaa !23
  %55 = and i32 %54, 1
  store i32 %55, ptr %12, align 4, !tbaa !23
  %56 = load ptr, ptr %8, align 8, !tbaa !42
  %57 = load i32, ptr %13, align 4, !tbaa !23
  %58 = mul nsw i32 2, %57
  %59 = add nsw i32 %58, 0
  %60 = sext i32 %59 to i64
  %61 = getelementptr inbounds i32, ptr %56, i64 %60
  %62 = load i32, ptr %61, align 4, !tbaa !23
  %63 = lshr i32 %62, 1
  %64 = load ptr, ptr %8, align 8, !tbaa !42
  %65 = load i32, ptr %13, align 4, !tbaa !23
  %66 = mul nsw i32 2, %65
  %67 = add nsw i32 %66, 0
  %68 = sext i32 %67 to i64
  %69 = getelementptr inbounds i32, ptr %64, i64 %68
  store i32 %63, ptr %69, align 4, !tbaa !23
  %70 = load ptr, ptr %3, align 8, !tbaa !3
  %71 = getelementptr inbounds nuw %struct.Rwr_Man_t_, ptr %70, i32 0, i32 8
  %72 = load ptr, ptr %71, align 8, !tbaa !10
  %73 = getelementptr inbounds nuw %struct.Vec_Ptr_t_, ptr %72, i32 0, i32 2
  %74 = load ptr, ptr %73, align 8, !tbaa !26
  %75 = load ptr, ptr %8, align 8, !tbaa !42
  %76 = load i32, ptr %13, align 4, !tbaa !23
  %77 = mul nsw i32 2, %76
  %78 = add nsw i32 %77, 0
  %79 = sext i32 %78 to i64
  %80 = getelementptr inbounds i32, ptr %75, i64 %79
  %81 = load i32, ptr %80, align 4, !tbaa !23
  %82 = lshr i32 %81, 1
  %83 = zext i32 %82 to i64
  %84 = getelementptr inbounds nuw ptr, ptr %74, i64 %83
  %85 = load ptr, ptr %84, align 8, !tbaa !27
  store ptr %85, ptr %6, align 8, !tbaa !28
  %86 = load ptr, ptr %3, align 8, !tbaa !3
  %87 = getelementptr inbounds nuw %struct.Rwr_Man_t_, ptr %86, i32 0, i32 8
  %88 = load ptr, ptr %87, align 8, !tbaa !10
  %89 = getelementptr inbounds nuw %struct.Vec_Ptr_t_, ptr %88, i32 0, i32 2
  %90 = load ptr, ptr %89, align 8, !tbaa !26
  %91 = load ptr, ptr %8, align 8, !tbaa !42
  %92 = load i32, ptr %13, align 4, !tbaa !23
  %93 = mul nsw i32 2, %92
  %94 = add nsw i32 %93, 1
  %95 = sext i32 %94 to i64
  %96 = getelementptr inbounds i32, ptr %91, i64 %95
  %97 = load i32, ptr %96, align 4, !tbaa !23
  %98 = lshr i32 %97, 1
  %99 = zext i32 %98 to i64
  %100 = getelementptr inbounds nuw ptr, ptr %90, i64 %99
  %101 = load ptr, ptr %100, align 8, !tbaa !27
  store ptr %101, ptr %7, align 8, !tbaa !28
  %102 = load ptr, ptr %6, align 8, !tbaa !28
  %103 = getelementptr inbounds nuw %struct.Rwr_Node_t_, ptr %102, i32 0, i32 5
  %104 = load i32, ptr %103, align 2
  %105 = lshr i32 %104, 24
  %106 = and i32 %105, 63
  %107 = load ptr, ptr %7, align 8, !tbaa !28
  %108 = getelementptr inbounds nuw %struct.Rwr_Node_t_, ptr %107, i32 0, i32 5
  %109 = load i32, ptr %108, align 2
  %110 = lshr i32 %109, 24
  %111 = and i32 %110, 63
  %112 = call i32 @Abc_MaxInt(i32 noundef %106, i32 noundef %111)
  %113 = add nsw i32 1, %112
  store i32 %113, ptr %9, align 4, !tbaa !23
  %114 = load ptr, ptr %3, align 8, !tbaa !3
  %115 = load ptr, ptr %6, align 8, !tbaa !28
  %116 = load ptr, ptr %7, align 8, !tbaa !28
  %117 = call i32 @Rwr_ManNodeVolume(ptr noundef %114, ptr noundef %115, ptr noundef %116)
  %118 = add nsw i32 1, %117
  store i32 %118, ptr %10, align 4, !tbaa !23
  %119 = load ptr, ptr %6, align 8, !tbaa !28
  %120 = load ptr, ptr %8, align 8, !tbaa !42
  %121 = load i32, ptr %13, align 4, !tbaa !23
  %122 = mul nsw i32 2, %121
  %123 = add nsw i32 %122, 0
  %124 = sext i32 %123 to i64
  %125 = getelementptr inbounds i32, ptr %120, i64 %124
  %126 = load i32, ptr %125, align 4, !tbaa !23
  %127 = and i32 %126, 1
  %128 = call ptr @Rwr_NotCond(ptr noundef %119, i32 noundef %127)
  store ptr %128, ptr %6, align 8, !tbaa !28
  %129 = load ptr, ptr %7, align 8, !tbaa !28
  %130 = load ptr, ptr %8, align 8, !tbaa !42
  %131 = load i32, ptr %13, align 4, !tbaa !23
  %132 = mul nsw i32 2, %131
  %133 = add nsw i32 %132, 1
  %134 = sext i32 %133 to i64
  %135 = getelementptr inbounds i32, ptr %130, i64 %134
  %136 = load i32, ptr %135, align 4, !tbaa !23
  %137 = and i32 %136, 1
  %138 = call ptr @Rwr_NotCond(ptr noundef %129, i32 noundef %137)
  store ptr %138, ptr %7, align 8, !tbaa !28
  %139 = load ptr, ptr %3, align 8, !tbaa !3
  %140 = load ptr, ptr %6, align 8, !tbaa !28
  %141 = load ptr, ptr %7, align 8, !tbaa !28
  %142 = load i32, ptr %12, align 4, !tbaa !23
  %143 = load i32, ptr %9, align 4, !tbaa !23
  %144 = load i32, ptr %10, align 4, !tbaa !23
  %145 = load i32, ptr %12, align 4, !tbaa !23
  %146 = add nsw i32 %144, %145
  %147 = call ptr @Rwr_ManAddNode(ptr noundef %139, ptr noundef %140, ptr noundef %141, i32 noundef %142, i32 noundef %143, i32 noundef %146)
  br label %148

148:                                              ; preds = %47
  %149 = load i32, ptr %13, align 4, !tbaa !23
  %150 = add nsw i32 %149, 1
  store i32 %150, ptr %13, align 4, !tbaa !23
  br label %43, !llvm.loop !45

151:                                              ; preds = %43
  %152 = load ptr, ptr %8, align 8, !tbaa !42
  %153 = icmp ne ptr %152, null
  br i1 %153, label %154, label %156

154:                                              ; preds = %151
  %155 = load ptr, ptr %8, align 8, !tbaa !42
  call void @free(ptr noundef %155) #9
  store ptr null, ptr %8, align 8, !tbaa !42
  br label %157

156:                                              ; preds = %151
  br label %157

157:                                              ; preds = %156, %154
  %158 = load ptr, ptr %3, align 8, !tbaa !3
  %159 = getelementptr inbounds nuw %struct.Rwr_Man_t_, ptr %158, i32 0, i32 15
  %160 = load i32, ptr %159, align 4, !tbaa !40
  %161 = load ptr, ptr %3, align 8, !tbaa !3
  %162 = getelementptr inbounds nuw %struct.Rwr_Man_t_, ptr %161, i32 0, i32 14
  %163 = load i32, ptr %162, align 8, !tbaa !41
  %164 = call i32 (ptr, ...) @printf(ptr noundef @.str.11, i32 noundef %160, i32 noundef %163)
  %165 = load i32, ptr %11, align 4, !tbaa !23
  %166 = call i32 (ptr, ...) @printf(ptr noundef @.str.17, i32 noundef %165)
  call void (i32, ptr, ...) @Abc_Print(i32 noundef 1, ptr noundef @.str.8, ptr noundef @.str.13)
  %167 = call i64 @Abc_Clock()
  %168 = load i64, ptr %14, align 8, !tbaa !8
  %169 = sub nsw i64 %167, %168
  %170 = sitofp i64 %169 to double
  %171 = fmul double 1.000000e+00, %170
  %172 = fdiv double %171, 1.000000e+06
  call void (i32, ptr, ...) @Abc_Print(i32 noundef 1, ptr noundef @.str.10, double noundef %172)
  store i32 0, ptr %16, align 4
  br label %173

173:                                              ; preds = %157, %22
  call void @llvm.lifetime.end.p0(i64 4, ptr %15) #9
  call void @llvm.lifetime.end.p0(i64 8, ptr %14) #9
  call void @llvm.lifetime.end.p0(i64 4, ptr %13) #9
  call void @llvm.lifetime.end.p0(i64 4, ptr %12) #9
  call void @llvm.lifetime.end.p0(i64 4, ptr %11) #9
  call void @llvm.lifetime.end.p0(i64 4, ptr %10) #9
  call void @llvm.lifetime.end.p0(i64 4, ptr %9) #9
  call void @llvm.lifetime.end.p0(i64 8, ptr %8) #9
  call void @llvm.lifetime.end.p0(i64 8, ptr %7) #9
  call void @llvm.lifetime.end.p0(i64 8, ptr %6) #9
  call void @llvm.lifetime.end.p0(i64 8, ptr %5) #9
  %174 = load i32, ptr %16, align 4
  switch i32 %174, label %176 [
    i32 0, label %175
    i32 1, label %175
  ]

175:                                              ; preds = %173, %173
  ret void

176:                                              ; preds = %173
  unreachable
}