; Function Attrs: nounwind uwtable
define void @Rwr_ManLoadFromFile(ptr noundef %0, ptr noundef %1) local_unnamed_addr #0 {
  %3 = alloca %struct.timespec, align 8
  %4 = alloca %struct.timespec, align 8
  %5 = alloca i32, align 4
  call void @llvm.lifetime.start.p0(i64 4, ptr nonnull %5) #15
  call void @llvm.lifetime.start.p0(i64 16, ptr nonnull %4) #15
  %6 = call i32 @clock_gettime(i32 noundef 1, ptr noundef nonnull %4) #15
  %7 = icmp slt i32 %6, 0
  br i1 %7, label %Abc_Clock.exit, label %8

8:                                                ; preds = %2
  %9 = load i64, ptr %4, align 8, !tbaa !3
  %.neg47 = mul i64 %9, -1000000
  %10 = getelementptr inbounds nuw i8, ptr %4, i64 8
  %11 = load i64, ptr %10, align 8, !tbaa !8
  %.neg = sdiv i64 %11, -1000
  %.neg48 = add i64 %.neg, %.neg47
  br label %Abc_Clock.exit

Abc_Clock.exit:                                   ; preds = %2, %8
  %.0.i.neg = phi i64 [ %.neg48, %8 ], [ 1, %2 ]
  call void @llvm.lifetime.end.p0(i64 16, ptr nonnull %4) #15
  %12 = call noalias ptr @fopen(ptr noundef %1, ptr noundef nonnull @.str.15)
  %13 = icmp eq ptr %12, null
  br i1 %13, label %14, label %16

14:                                               ; preds = %Abc_Clock.exit
  %15 = call i32 (ptr, ...) @printf(ptr noundef nonnull dereferenceable(1) @.str.16, ptr noundef %1)
  br label %90

16:                                               ; preds = %Abc_Clock.exit
  %17 = call i64 @fread(ptr noundef nonnull %5, i64 noundef 4, i64 noundef 1, ptr noundef nonnull %12)
  %18 = load i32, ptr %5, align 4, !tbaa !30
  %19 = shl nsw i32 %18, 1
  %20 = sext i32 %19 to i64
  %21 = shl nsw i64 %20, 2
  %22 = call noalias ptr @malloc(i64 noundef %21) #17
  %23 = call i64 @fread(ptr noundef %22, i64 noundef 4, i64 noundef %20, ptr noundef nonnull %12)
  %24 = call i32 @fclose(ptr noundef nonnull %12)
  %25 = icmp sgt i32 %18, 0
  br i1 %25, label %.lr.ph, label %._crit_edge

.lr.ph:                                           ; preds = %16
  %26 = getelementptr inbounds nuw i8, ptr %0, i64 64
  %wide.trip.count = zext nneg i32 %18 to i64
  br label %27

27:                                               ; preds = %.lr.ph, %27
  %indvars.iv = phi i64 [ 0, %.lr.ph ], [ %indvars.iv.next, %27 ]
  %28 = shl nuw nsw i64 %indvars.iv, 1
  %29 = getelementptr inbounds nuw i32, ptr %22, i64 %28
  %30 = load i32, ptr %29, align 4, !tbaa !30
  %31 = and i32 %30, 1
  %32 = lshr i32 %30, 1
  store i32 %32, ptr %29, align 4, !tbaa !30
  %33 = load ptr, ptr %26, align 8, !tbaa !9
  %34 = getelementptr inbounds nuw i8, ptr %33, i64 8
  %35 = load ptr, ptr %34, align 8, !tbaa !23
  %36 = lshr i32 %30, 2
  %37 = zext nneg i32 %36 to i64
  %38 = getelementptr inbounds nuw ptr, ptr %35, i64 %37
  %39 = load ptr, ptr %38, align 8, !tbaa !24
  %40 = or disjoint i64 %28, 1
  %41 = getelementptr inbounds nuw i32, ptr %22, i64 %40
  %42 = load i32, ptr %41, align 4, !tbaa !30
  %43 = lshr i32 %42, 1
  %44 = zext nneg i32 %43 to i64
  %45 = getelementptr inbounds nuw ptr, ptr %35, i64 %44
  %46 = load ptr, ptr %45, align 8, !tbaa !24
  %47 = getelementptr inbounds nuw i8, ptr %39, i64 14
  %48 = load i32, ptr %47, align 2
  %49 = lshr i32 %48, 24
  %50 = and i32 %49, 63
  %51 = getelementptr inbounds nuw i8, ptr %46, i64 14
  %52 = load i32, ptr %51, align 2
  %53 = lshr i32 %52, 24
  %54 = and i32 %53, 63
  %55 = call range(i32 0, 64) i32 @llvm.umax.i32(i32 range(i32 0, 64) %50, i32 range(i32 0, 64) %54)
  %56 = add nuw nsw i32 %55, 1
  %57 = call i32 @Rwr_ManNodeVolume(ptr noundef %0, ptr noundef %39, ptr noundef %46) #15
  %58 = and i32 %32, 1
  %59 = ptrtoint ptr %39 to i64
  %60 = zext nneg i32 %58 to i64
  %61 = xor i64 %59, %60
  %62 = inttoptr i64 %61 to ptr
  %63 = and i32 %42, 1
  %64 = ptrtoint ptr %46 to i64
  %65 = zext nneg i32 %63 to i64
  %66 = xor i64 %65, %64
  %67 = inttoptr i64 %66 to ptr
  %68 = add nuw nsw i32 %31, 1
  %69 = add i32 %68, %57
  %70 = call ptr @Rwr_ManAddNode(ptr noundef %0, ptr noundef %62, ptr noundef %67, i32 noundef %31, i32 noundef %56, i32 noundef %69) #15
  %indvars.iv.next = add nuw nsw i64 %indvars.iv, 1
  %exitcond.not = icmp eq i64 %indvars.iv.next, %wide.trip.count
  br i1 %exitcond.not, label %._crit_edge.thread, label %27, !llvm.loop !43

._crit_edge:                                      ; preds = %16
  %.not = icmp eq ptr %22, null
  br i1 %.not, label %71, label %._crit_edge.thread

._crit_edge.thread:                               ; preds = %27, %._crit_edge
  call void @free(ptr noundef nonnull %22) #15
  br label %71

71:                                               ; preds = %._crit_edge, %._crit_edge.thread
  %72 = getelementptr inbounds nuw i8, ptr %0, i64 108
  %73 = load i32, ptr %72, align 4, !tbaa !40
  %74 = getelementptr inbounds nuw i8, ptr %0, i64 104
  %75 = load i32, ptr %74, align 8, !tbaa !41
  %76 = call i32 (ptr, ...) @printf(ptr noundef nonnull dereferenceable(1) @.str.11, i32 noundef %73, i32 noundef %75)
  %77 = call i32 (ptr, ...) @printf(ptr noundef nonnull dereferenceable(1) @.str.17, i32 noundef %18)
  call void (i32, ptr, ...) @Abc_Print(i32 poison, ptr noundef nonnull @.str.8, ptr noundef nonnull @.str.13)
  call void @llvm.lifetime.start.p0(i64 16, ptr nonnull %3) #15
  %78 = call i32 @clock_gettime(i32 noundef 1, ptr noundef nonnull %3) #15
  %79 = icmp slt i32 %78, 0
  br i1 %79, label %Abc_Clock.exit46, label %80

80:                                               ; preds = %71
  %81 = load i64, ptr %3, align 8, !tbaa !3
  %82 = mul nsw i64 %81, 1000000
  %83 = getelementptr inbounds nuw i8, ptr %3, i64 8
  %84 = load i64, ptr %83, align 8, !tbaa !8
  %85 = sdiv i64 %84, 1000
  %86 = add nsw i64 %85, %82
  br label %Abc_Clock.exit46

Abc_Clock.exit46:                                 ; preds = %71, %80
  %.0.i45 = phi i64 [ %86, %80 ], [ -1, %71 ]
  call void @llvm.lifetime.end.p0(i64 16, ptr nonnull %3) #15
  %87 = add i64 %.0.i45, %.0.i.neg
  %88 = sitofp i64 %87 to double
  %89 = fdiv double %88, 1.000000e+06
  call void (i32, ptr, ...) @Abc_Print(i32 poison, ptr noundef nonnull @.str.10, double noundef %89)
  br label %90

90:                                               ; preds = %Abc_Clock.exit46, %14
  call void @llvm.lifetime.end.p0(i64 4, ptr nonnull %5) #15
  ret void
}